Certificate:
    Data:
        Version: 1 (0x0)
        Serial Number: 18 (0x12)
        Signature Algorithm: md5WithRSAEncryption
        Issuer: O=NOVA test, L=Mountain View, ST=California, C=US
        Validity
            Not Before: Aug  8 12:20:07 2012 GMT
            Not After : Aug  8 12:20:07 2013 GMT
        Subject: C=US, ST=California, O=AnsoLabs, OU=NovaDev, CN=test-test-2012-08-08T12:20:07Z
        Subject Public Key Info:
            Public Key Algorithm: rsaEncryption
            RSA Public Key: (1024 bit)
                Modulus (1024 bit):
                    00:f5:f5:d6:72:18:cb:f6:de:d0:96:37:7e:7f:2a:
                    be:1c:ce:43:ec:ee:f8:0f:d4:8c:4f:07:16:9a:76:
                    a4:29:50:dc:ab:77:79:e7:62:6d:bd:df:31:61:6a:
                    5d:d4:ae:0a:91:68:e6:7c:10:a9:08:17:1b:c9:84:
                    6e:cb:2c:8a:5b:ac:11:fc:33:3c:55:95:ac:c6:39:
                    15:8c:4c:22:f5:dc:34:45:c2:b0:65:9a:ac:c7:e5:
                    9a:ab:48:80:ef:3c:90:05:9d:bf:49:42:50:e1:56:
                    76:49:18:69:af:6f:52:9c:1b:82:4e:0f:0b:85:2d:
                    25:c9:97:e3:eb:53:b8:6c:21
                Exponent: 65537 (0x10001)
    Signature Algorithm: md5WithRSAEncryption
        97:d5:df:38:1d:2a:62:ce:c0:30:7e:cc:18:aa:71:98:1e:da:
        51:3e:5c:92:b6:46:08:fd:7c:d2:0c:02:8e:2a:a6:2a:bb:51:
        3d:80:05:85:44:d2:8b:45:0e:09:c0:7d:f0:9b:85:ce:28:8d:
        68:2d:08:1c:f1:7f:9c:19:0d:6c:62:70:db:6f:2a:03:40:6a:
        8d:1c:6a:72:6b:6d:d7:04:ca:a5:73:d3:41:eb:b5:df:d7:c4:
        d9:ad:bb:b0:a7:ae:9d:65:e5:72:ec:f1:27:28:6d:49:04:c7:
        54:0d:1c:22:a7:1e:d6:0a:37:72:77:a4:54:b5:c4:f2:73:85:
        6f:1c
-----BEGIN CERTIFICATE-----
MIICLTCCAZYCARIwDQYJKoZIhvcNAQEEBQAwTjESMBAGA1UEChMJTk9WQSB0ZXN0
MRYwFAYDVQQHEw1Nb3VudGFpbiBWaWV3MRMwEQYDVQQIEwpDYWxpZm9ybmlhMQsw
CQYDVQQGEwJVUzAeFw0xMjA4MDgxMjIwMDdaFw0xMzA4MDgxMjIwMDdaMHAxCzAJ
BgNVBAYTAlVTMRMwEQYDVQQIEwpDYWxpZm9ybmlhMREwDwYDVQQKEwhBbnNvTGFi
czEQMA4GA1UECxMHTm92YURldjEnMCUGA1UEAxMedGVzdC10ZXN0LTIwMTItMDgt
MDhUMTI6MjA6MDdaMIGfMA0GCSqGSIb3DQEBAQUAA4GNADCBiQKBgQD19dZyGMv2
3tCWN35/Kr4czkPs7vgP1IxPBxaadqQpUNyrd3nnYm293zFhal3UrgqRaOZ8EKkI
FxvJhG7LLIpbrBH8MzxVlazGORWMTCL13DRFwrBlmqzH5ZqrSIDvPJAFnb9JQlDh
VnZJGGmvb1KcG4JODwuFLSXJl+PrU7hsIQIDAQABMA0GCSqGSIb3DQEBBAUAA4GB
AJfV3zgdKmLOwDB+zBiqcZge2lE+XJK2Rgj9fNIMAo4qpiq7UT2ABYVE0otFDgnA
ffCbhc4ojWgtCBzxf5wZDWxicNtvKgNAao0canJrbdcEyqVz00Hrtd/XxNmtu7Cn
rp1l5XLs8ScobUkEx1QNHCKnHtYKN3J3pFS1xPJzhW8c
-----END CERTIFICATE-----
