Certificate:
    Data:
        Version: 1 (0x0)
        Serial Number: 16 (0x10)
        Signature Algorithm: md5WithRSAEncryption
        Issuer: O=NOVA test, L=Mountain View, ST=California, C=US
        Validity
            Not Before: Jul 10 10:57:39 2012 GMT
            Not After : Jul 10 10:57:39 2013 GMT
        Subject: C=US, ST=California, O=AnsoLabs, OU=NovaDev, CN=test-test-2012-07-10T10:57:39Z
        Subject Public Key Info:
            Public Key Algorithm: rsaEncryption
            RSA Public Key: (1024 bit)
                Modulus (1024 bit):
                    00:a3:09:72:6e:d4:9f:bf:e8:4c:ad:c1:a1:14:08:
                    8d:23:fa:ae:c3:e5:b9:7c:c3:66:82:08:2f:27:96:
                    cd:86:ef:02:32:9b:65:47:d9:36:e1:0e:2f:55:89:
                    89:a7:91:0d:2b:63:70:38:58:e3:63:02:3d:44:bc:
                    56:5a:a0:47:bd:8f:3d:e4:2d:79:d2:08:da:3e:b2:
                    85:f3:7d:ba:ed:a7:04:24:70:27:29:68:40:e0:38:
                    ab:e4:3e:fb:4a:a1:b2:52:14:bf:5e:81:96:e6:30:
                    69:25:82:78:95:72:49:08:d7:80:1a:ff:89:67:bd:
                    86:f7:f8:0f:72:e2:19:7b:e1
                Exponent: 65537 (0x10001)
    Signature Algorithm: md5WithRSAEncryption
        38:7f:22:6a:e2:d7:63:81:03:05:f6:36:8b:7c:ec:bd:d6:59:
        23:32:e5:70:60:f1:d0:b6:b8:af:21:96:03:5c:fe:98:a9:72:
        79:38:eb:68:60:ca:e4:1b:06:48:33:6c:e3:67:08:0e:df:7d:
        e7:4a:2d:a5:9f:c0:c4:e8:65:90:3d:bf:a3:1b:85:68:a0:67:
        e3:b0:ff:32:ae:84:01:d1:13:93:14:d7:ca:af:cb:dc:c7:c9:
        a8:73:13:44:50:3d:bf:6a:25:f3:20:9e:a8:b9:90:6e:ac:50:
        1c:e1:33:57:05:d7:98:df:a0:d3:df:c2:a1:db:98:66:2a:35:
        f8:95
-----BEGIN CERTIFICATE-----
MIICLTCCAZYCARAwDQYJKoZIhvcNAQEEBQAwTjESMBAGA1UEChMJTk9WQSB0ZXN0
MRYwFAYDVQQHEw1Nb3VudGFpbiBWaWV3MRMwEQYDVQQIEwpDYWxpZm9ybmlhMQsw
CQYDVQQGEwJVUzAeFw0xMjA3MTAxMDU3MzlaFw0xMzA3MTAxMDU3MzlaMHAxCzAJ
BgNVBAYTAlVTMRMwEQYDVQQIEwpDYWxpZm9ybmlhMREwDwYDVQQKEwhBbnNvTGFi
czEQMA4GA1UECxMHTm92YURldjEnMCUGA1UEAxMedGVzdC10ZXN0LTIwMTItMDct
MTBUMTA6NTc6MzlaMIGfMA0GCSqGSIb3DQEBAQUAA4GNADCBiQKBgQCjCXJu1J+/
6EytwaEUCI0j+q7D5bl8w2aCCC8nls2G7wIym2VH2TbhDi9ViYmnkQ0rY3A4WONj
Aj1EvFZaoEe9jz3kLXnSCNo+soXzfbrtpwQkcCcpaEDgOKvkPvtKobJSFL9egZbm
MGklgniVckkI14Aa/4lnvYb3+A9y4hl74QIDAQABMA0GCSqGSIb3DQEBBAUAA4GB
ADh/Imri12OBAwX2Not87L3WWSMy5XBg8dC2uK8hlgNc/pipcnk462hgyuQbBkgz
bONnCA7ffedKLaWfwMToZZA9v6MbhWigZ+Ow/zKuhAHRE5MU18qvy9zHyahzE0RQ
Pb9qJfMgnqi5kG6sUBzhM1cF15jfoNPfwqHbmGYqNfiV
-----END CERTIFICATE-----
